; ModuleID = 'source-C-CXX/44/2748.c'
source_filename = "source-C-CXX/44/2748.c"
target datalayout = "e-m:e-p270:32:32-p271:32:32-p272:64:64-i64:64-f80:128-n8:16:32:64-S128"
target triple = "x86_64-pc-linux-gnu"

@.str = private unnamed_addr constant [3 x i8] c"%s\00", align 1
@.str.1 = private unnamed_addr constant [3 x i8] c"%d\00", align 1

; Function Attrs: nofree norecurse nosync nounwind readonly sspstrong uwtable
define dso_local i32 @f(i8* nocapture readonly %0, i8* nocapture readonly %1, i32 %2) local_unnamed_addr #0 {
  %4 = load i8, i8* %0, align 1, !tbaa !5
  %5 = icmp eq i8 %4, 0
  br i1 %5, label %20, label %6

6:                                                ; preds = %3
  %7 = sext i32 %2 to i64
  br label %12

8:                                                ; preds = %12
  %9 = getelementptr inbounds i8, i8* %0, i64 %19
  %10 = load i8, i8* %9, align 1, !tbaa !5
  %11 = icmp eq i8 %10, 0
  br i1 %11, label %20, label %12, !llvm.loop !8

12:                                               ; preds = %6, %8
  %13 = phi i64 [ 0, %6 ], [ %19, %8 ]
  %14 = phi i8 [ %4, %6 ], [ %10, %8 ]
  %15 = add nsw i64 %13, %7
  %16 = getelementptr inbounds i8, i8* %1, i64 %15
  %17 = load i8, i8* %16, align 1, !tbaa !5
  %18 = icmp eq i8 %14, %17
  %19 = add nuw i64 %13, 1
  br i1 %18, label %8, label %20

20:                                               ; preds = %8, %12, %3
  %21 = phi i32 [ 1, %3 ], [ 0, %12 ], [ 1, %8 ]
  ret i32 %21
}

; Function Attrs: argmemonly mustprogress nofree nosync nounwind willreturn
declare void @llvm.lifetime.start.p0i8(i64 immarg, i8* nocapture) #1

; Function Attrs: argmemonly mustprogress nofree nosync nounwind willreturn
declare void @llvm.lifetime.end.p0i8(i64 immarg, i8* nocapture) #1

; Function Attrs: nofree nounwind sspstrong uwtable
define dso_local i32 @main() local_unnamed_addr #2 {
  %1 = alloca [60 x i8], align 16
  %2 = alloca [60 x i8], align 16
  %3 = getelementptr inbounds [60 x i8], [60 x i8]* %1, i64 0, i64 0
  call void @llvm.lifetime.start.p0i8(i64 60, i8* nonnull %3) #5
  %4 = getelementptr inbounds [60 x i8], [60 x i8]* %2, i64 0, i64 0
  call void @llvm.lifetime.start.p0i8(i64 60, i8* nonnull %4) #5
  %5 = call i32 (i8*, ...) @__isoc99_scanf(i8* getelementptr inbounds ([3 x i8], [3 x i8]* @.str, i64 0, i64 0), i8* nonnull %3)
  %6 = call i64 @strlen(i8* noundef nonnull %3) #6
  %7 = trunc i64 %6 to i32
  %8 = call i32 (i8*, ...) @__isoc99_scanf(i8* getelementptr inbounds ([3 x i8], [3 x i8]* @.str, i64 0, i64 0), i8* nonnull %4)
  %9 = call i64 @strlen(i8* noundef nonnull %4) #6
  %10 = trunc i64 %9 to i32
  %11 = sub i32 %10, %7
  %12 = load i8, i8* %3, align 16
  %13 = icmp eq i8 %12, 0
  %14 = icmp slt i32 %11, 0
  %15 = select i1 %14, i1 true, i1 %13
  br i1 %15, label %40, label %16

16:                                               ; preds = %0
  %17 = add nuw i32 %11, 1
  %18 = add i64 %9, 1
  %19 = sub i64 %18, %6
  %20 = and i64 %19, 4294967295
  br label %21

21:                                               ; preds = %16, %35
  %22 = phi i64 [ 0, %16 ], [ %36, %35 ]
  br label %27

23:                                               ; preds = %27
  %24 = getelementptr inbounds [60 x i8], [60 x i8]* %1, i64 0, i64 %34
  %25 = load i8, i8* %24, align 1, !tbaa !5
  %26 = icmp eq i8 %25, 0
  br i1 %26, label %38, label %27, !llvm.loop !8

27:                                               ; preds = %23, %21
  %28 = phi i64 [ 0, %21 ], [ %34, %23 ]
  %29 = phi i8 [ %12, %21 ], [ %25, %23 ]
  %30 = add nsw i64 %28, %22
  %31 = getelementptr inbounds [60 x i8], [60 x i8]* %2, i64 0, i64 %30
  %32 = load i8, i8* %31, align 1, !tbaa !5
  %33 = icmp eq i8 %29, %32
  %34 = add nuw i64 %28, 1
  br i1 %33, label %23, label %35

35:                                               ; preds = %27
  %36 = add nuw nsw i64 %22, 1
  %37 = icmp eq i64 %36, %20
  br i1 %37, label %40, label %21, !llvm.loop !10

38:                                               ; preds = %23
  %39 = trunc i64 %22 to i32
  br label %40

40:                                               ; preds = %35, %38, %0
  %41 = phi i32 [ 0, %0 ], [ %39, %38 ], [ %17, %35 ]
  %42 = call i32 (i8*, ...) @printf(i8* nonnull dereferenceable(1) getelementptr inbounds ([3 x i8], [3 x i8]* @.str.1, i64 0, i64 0), i32 %41)
  call void @llvm.lifetime.end.p0i8(i64 60, i8* nonnull %4) #5
  call void @llvm.lifetime.end.p0i8(i64 60, i8* nonnull %3) #5
  ret i32 0
}

; Function Attrs: nofree nounwind
declare noundef i32 @__isoc99_scanf(i8* nocapture noundef readonly, ...) local_unnamed_addr #3

; Function Attrs: argmemonly mustprogress nofree nounwind readonly willreturn
declare i64 @strlen(i8* nocapture) local_unnamed_addr #4

; Function Attrs: nofree nounwind
declare noundef i32 @printf(i8* nocapture noundef readonly, ...) local_unnamed_addr #3


!llvm.module.flags = !{!0, !1, !2, !3}
!llvm.ident = !{!4}

!0 = !{i32 1, !"wchar_size", i32 4}
!1 = !{i32 7, !"PIC Level", i32 2}
!2 = !{i32 7, !"PIE Level", i32 2}
!3 = !{i32 7, !"uwtable", i32 1}
!4 = !{!"clang version 13.0.0"}
!5 = !{!6, !6, i64 0}
!6 = !{!"omnipotent char", !7, i64 0}
!7 = !{!"Simple C/C++ TBAA"}
!8 = distinct !{!8, !9}
!9 = !{!"llvm.loop.mustprogress"}
!10 = distinct !{!10, !9}
